; ModuleID = '39/2168.c'
source_filename = "39/2168.c"
target datalayout = "e-m:e-p270:32:32-p271:32:32-p272:64:64-i64:64-f80:128-n8:16:32:64-S128"
target triple = "x86_64-pc-linux-gnu"

%struct.stu = type { [20 x i8], i32, i32, i8, i8, i32, i32 }

@.str = private unnamed_addr constant [3 x i8] c"%d\00", align 1
@.str.1 = private unnamed_addr constant [18 x i8] c"%s %d %d %c %c %d\00", align 1
@.str.2 = private unnamed_addr constant [9 x i8] c"%s\0A%d\0A%d\00", align 1

; Function Attrs: noinline nounwind uwtable
define dso_local void @main() #0 {
  %1 = alloca [100 x %struct.stu], align 16
  %2 = alloca i32, align 4
  %3 = alloca i32, align 4
  %4 = alloca i32, align 4
  %5 = alloca i32, align 4
  %6 = alloca i32, align 4
  store i32 0, i32* %6, align 4
  %7 = call i32 (i8*, ...) @__isoc99_scanf(i8* getelementptr inbounds ([3 x i8], [3 x i8]* @.str, i64 0, i64 0), i32* %2)
  store i32 0, i32* %3, align 4
  br label %8

8:                                                ; preds = %170, %0
  %9 = load i32, i32* %3, align 4
  %10 = load i32, i32* %2, align 4
  %11 = icmp slt i32 %9, %10
  br i1 %11, label %12, label %173

12:                                               ; preds = %8
  %13 = load i32, i32* %3, align 4
  %14 = sext i32 %13 to i64
  %15 = getelementptr inbounds [100 x %struct.stu], [100 x %struct.stu]* %1, i64 0, i64 %14
  %16 = getelementptr inbounds %struct.stu, %struct.stu* %15, i32 0, i32 0
  %17 = getelementptr inbounds [20 x i8], [20 x i8]* %16, i64 0, i64 0
  %18 = load i32, i32* %3, align 4
  %19 = sext i32 %18 to i64
  %20 = getelementptr inbounds [100 x %struct.stu], [100 x %struct.stu]* %1, i64 0, i64 %19
  %21 = getelementptr inbounds %struct.stu, %struct.stu* %20, i32 0, i32 1
  %22 = load i32, i32* %3, align 4
  %23 = sext i32 %22 to i64
  %24 = getelementptr inbounds [100 x %struct.stu], [100 x %struct.stu]* %1, i64 0, i64 %23
  %25 = getelementptr inbounds %struct.stu, %struct.stu* %24, i32 0, i32 2
  %26 = load i32, i32* %3, align 4
  %27 = sext i32 %26 to i64
  %28 = getelementptr inbounds [100 x %struct.stu], [100 x %struct.stu]* %1, i64 0, i64 %27
  %29 = getelementptr inbounds %struct.stu, %struct.stu* %28, i32 0, i32 3
  %30 = load i32, i32* %3, align 4
  %31 = sext i32 %30 to i64
  %32 = getelementptr inbounds [100 x %struct.stu], [100 x %struct.stu]* %1, i64 0, i64 %31
  %33 = getelementptr inbounds %struct.stu, %struct.stu* %32, i32 0, i32 4
  %34 = load i32, i32* %3, align 4
  %35 = sext i32 %34 to i64
  %36 = getelementptr inbounds [100 x %struct.stu], [100 x %struct.stu]* %1, i64 0, i64 %35
  %37 = getelementptr inbounds %struct.stu, %struct.stu* %36, i32 0, i32 5
  %38 = call i32 (i8*, ...) @__isoc99_scanf(i8* getelementptr inbounds ([18 x i8], [18 x i8]* @.str.1, i64 0, i64 0), i8* %17, i32* %21, i32* %25, i8* %29, i8* %33, i32* %37)
  %39 = load i32, i32* %3, align 4
  %40 = sext i32 %39 to i64
  %41 = getelementptr inbounds [100 x %struct.stu], [100 x %struct.stu]* %1, i64 0, i64 %40
  %42 = getelementptr inbounds %struct.stu, %struct.stu* %41, i32 0, i32 6
  store i32 0, i32* %42, align 4
  %43 = load i32, i32* %3, align 4
  %44 = sext i32 %43 to i64
  %45 = getelementptr inbounds [100 x %struct.stu], [100 x %struct.stu]* %1, i64 0, i64 %44
  %46 = getelementptr inbounds %struct.stu, %struct.stu* %45, i32 0, i32 1
  %47 = load i32, i32* %46, align 4
  %48 = icmp sgt i32 %47, 80
  br i1 %48, label %49, label %67

49:                                               ; preds = %12
  %50 = load i32, i32* %3, align 4
  %51 = sext i32 %50 to i64
  %52 = getelementptr inbounds [100 x %struct.stu], [100 x %struct.stu]* %1, i64 0, i64 %51
  %53 = getelementptr inbounds %struct.stu, %struct.stu* %52, i32 0, i32 5
  %54 = load i32, i32* %53, align 8
  %55 = icmp sgt i32 %54, 0
  br i1 %55, label %56, label %67

56:                                               ; preds = %49
  %57 = load i32, i32* %3, align 4
  %58 = sext i32 %57 to i64
  %59 = getelementptr inbounds [100 x %struct.stu], [100 x %struct.stu]* %1, i64 0, i64 %58
  %60 = getelementptr inbounds %struct.stu, %struct.stu* %59, i32 0, i32 6
  %61 = load i32, i32* %60, align 4
  %62 = add nsw i32 %61, 8000
  %63 = load i32, i32* %3, align 4
  %64 = sext i32 %63 to i64
  %65 = getelementptr inbounds [100 x %struct.stu], [100 x %struct.stu]* %1, i64 0, i64 %64
  %66 = getelementptr inbounds %struct.stu, %struct.stu* %65, i32 0, i32 6
  store i32 %62, i32* %66, align 4
  br label %67

67:                                               ; preds = %56, %49, %12
  %68 = load i32, i32* %3, align 4
  %69 = sext i32 %68 to i64
  %70 = getelementptr inbounds [100 x %struct.stu], [100 x %struct.stu]* %1, i64 0, i64 %69
  %71 = getelementptr inbounds %struct.stu, %struct.stu* %70, i32 0, i32 1
  %72 = load i32, i32* %71, align 4
  %73 = icmp sgt i32 %72, 85
  br i1 %73, label %74, label %92

74:                                               ; preds = %67
  %75 = load i32, i32* %3, align 4
  %76 = sext i32 %75 to i64
  %77 = getelementptr inbounds [100 x %struct.stu], [100 x %struct.stu]* %1, i64 0, i64 %76
  %78 = getelementptr inbounds %struct.stu, %struct.stu* %77, i32 0, i32 2
  %79 = load i32, i32* %78, align 8
  %80 = icmp sgt i32 %79, 80
  br i1 %80, label %81, label %92

81:                                               ; preds = %74
  %82 = load i32, i32* %3, align 4
  %83 = sext i32 %82 to i64
  %84 = getelementptr inbounds [100 x %struct.stu], [100 x %struct.stu]* %1, i64 0, i64 %83
  %85 = getelementptr inbounds %struct.stu, %struct.stu* %84, i32 0, i32 6
  %86 = load i32, i32* %85, align 4
  %87 = add nsw i32 %86, 4000
  %88 = load i32, i32* %3, align 4
  %89 = sext i32 %88 to i64
  %90 = getelementptr inbounds [100 x %struct.stu], [100 x %struct.stu]* %1, i64 0, i64 %89
  %91 = getelementptr inbounds %struct.stu, %struct.stu* %90, i32 0, i32 6
  store i32 %87, i32* %91, align 4
  br label %92

92:                                               ; preds = %81, %74, %67
  %93 = load i32, i32* %3, align 4
  %94 = sext i32 %93 to i64
  %95 = getelementptr inbounds [100 x %struct.stu], [100 x %struct.stu]* %1, i64 0, i64 %94
  %96 = getelementptr inbounds %struct.stu, %struct.stu* %95, i32 0, i32 1
  %97 = load i32, i32* %96, align 4
  %98 = icmp sgt i32 %97, 90
  br i1 %98, label %99, label %110

99:                                               ; preds = %92
  %100 = load i32, i32* %3, align 4
  %101 = sext i32 %100 to i64
  %102 = getelementptr inbounds [100 x %struct.stu], [100 x %struct.stu]* %1, i64 0, i64 %101
  %103 = getelementptr inbounds %struct.stu, %struct.stu* %102, i32 0, i32 6
  %104 = load i32, i32* %103, align 4
  %105 = add nsw i32 %104, 2000
  %106 = load i32, i32* %3, align 4
  %107 = sext i32 %106 to i64
  %108 = getelementptr inbounds [100 x %struct.stu], [100 x %struct.stu]* %1, i64 0, i64 %107
  %109 = getelementptr inbounds %struct.stu, %struct.stu* %108, i32 0, i32 6
  store i32 %105, i32* %109, align 4
  br label %110

110:                                              ; preds = %99, %92
  %111 = load i32, i32* %3, align 4
  %112 = sext i32 %111 to i64
  %113 = getelementptr inbounds [100 x %struct.stu], [100 x %struct.stu]* %1, i64 0, i64 %112
  %114 = getelementptr inbounds %struct.stu, %struct.stu* %113, i32 0, i32 1
  %115 = load i32, i32* %114, align 4
  %116 = icmp sgt i32 %115, 85
  br i1 %116, label %117, label %136

117:                                              ; preds = %110
  %118 = load i32, i32* %3, align 4
  %119 = sext i32 %118 to i64
  %120 = getelementptr inbounds [100 x %struct.stu], [100 x %struct.stu]* %1, i64 0, i64 %119
  %121 = getelementptr inbounds %struct.stu, %struct.stu* %120, i32 0, i32 4
  %122 = load i8, i8* %121, align 1
  %123 = sext i8 %122 to i32
  %124 = icmp eq i32 %123, 89
  br i1 %124, label %125, label %136

125:                                              ; preds = %117
  %126 = load i32, i32* %3, align 4
  %127 = sext i32 %126 to i64
  %128 = getelementptr inbounds [100 x %struct.stu], [100 x %struct.stu]* %1, i64 0, i64 %127
  %129 = getelementptr inbounds %struct.stu, %struct.stu* %128, i32 0, i32 6
  %130 = load i32, i32* %129, align 4
  %131 = add nsw i32 %130, 1000
  %132 = load i32, i32* %3, align 4
  %133 = sext i32 %132 to i64
  %134 = getelementptr inbounds [100 x %struct.stu], [100 x %struct.stu]* %1, i64 0, i64 %133
  %135 = getelementptr inbounds %struct.stu, %struct.stu* %134, i32 0, i32 6
  store i32 %131, i32* %135, align 4
  br label %136

136:                                              ; preds = %125, %117, %110
  %137 = load i32, i32* %3, align 4
  %138 = sext i32 %137 to i64
  %139 = getelementptr inbounds [100 x %struct.stu], [100 x %struct.stu]* %1, i64 0, i64 %138
  %140 = getelementptr inbounds %struct.stu, %struct.stu* %139, i32 0, i32 2
  %141 = load i32, i32* %140, align 8
  %142 = icmp sgt i32 %141, 80
  br i1 %142, label %143, label %162

143:                                              ; preds = %136
  %144 = load i32, i32* %3, align 4
  %145 = sext i32 %144 to i64
  %146 = getelementptr inbounds [100 x %struct.stu], [100 x %struct.stu]* %1, i64 0, i64 %145
  %147 = getelementptr inbounds %struct.stu, %struct.stu* %146, i32 0, i32 3
  %148 = load i8, i8* %147, align 4
  %149 = sext i8 %148 to i32
  %150 = icmp eq i32 %149, 89
  br i1 %150, label %151, label %162

151:                                              ; preds = %143
  %152 = load i32, i32* %3, align 4
  %153 = sext i32 %152 to i64
  %154 = getelementptr inbounds [100 x %struct.stu], [100 x %struct.stu]* %1, i64 0, i64 %153
  %155 = getelementptr inbounds %struct.stu, %struct.stu* %154, i32 0, i32 6
  %156 = load i32, i32* %155, align 4
  %157 = add nsw i32 %156, 850
  %158 = load i32, i32* %3, align 4
  %159 = sext i32 %158 to i64
  %160 = getelementptr inbounds [100 x %struct.stu], [100 x %struct.stu]* %1, i64 0, i64 %159
  %161 = getelementptr inbounds %struct.stu, %struct.stu* %160, i32 0, i32 6
  store i32 %157, i32* %161, align 4
  br label %162

162:                                              ; preds = %151, %143, %136
  %163 = load i32, i32* %6, align 4
  %164 = load i32, i32* %3, align 4
  %165 = sext i32 %164 to i64
  %166 = getelementptr inbounds [100 x %struct.stu], [100 x %struct.stu]* %1, i64 0, i64 %165
  %167 = getelementptr inbounds %struct.stu, %struct.stu* %166, i32 0, i32 6
  %168 = load i32, i32* %167, align 4
  %169 = add nsw i32 %163, %168
  store i32 %169, i32* %6, align 4
  br label %170

170:                                              ; preds = %162
  %171 = load i32, i32* %3, align 4
  %172 = add nsw i32 %171, 1
  store i32 %172, i32* %3, align 4
  br label %8

173:                                              ; preds = %8
  store i32 1, i32* %3, align 4
  store i32 0, i32* %5, align 4
  %174 = getelementptr inbounds [100 x %struct.stu], [100 x %struct.stu]* %1, i64 0, i64 0
  %175 = getelementptr inbounds %struct.stu, %struct.stu* %174, i32 0, i32 6
  %176 = load i32, i32* %175, align 4
  store i32 %176, i32* %4, align 4
  br label %177

177:                                              ; preds = %197, %173
  %178 = load i32, i32* %3, align 4
  %179 = load i32, i32* %2, align 4
  %180 = icmp slt i32 %178, %179
  br i1 %180, label %181, label %200

181:                                              ; preds = %177
  %182 = load i32, i32* %3, align 4
  %183 = sext i32 %182 to i64
  %184 = getelementptr inbounds [100 x %struct.stu], [100 x %struct.stu]* %1, i64 0, i64 %183
  %185 = getelementptr inbounds %struct.stu, %struct.stu* %184, i32 0, i32 6
  %186 = load i32, i32* %185, align 4
  %187 = load i32, i32* %4, align 4
  %188 = icmp sgt i32 %186, %187
  br i1 %188, label %189, label %196

189:                                              ; preds = %181
  %190 = load i32, i32* %3, align 4
  %191 = sext i32 %190 to i64
  %192 = getelementptr inbounds [100 x %struct.stu], [100 x %struct.stu]* %1, i64 0, i64 %191
  %193 = getelementptr inbounds %struct.stu, %struct.stu* %192, i32 0, i32 6
  %194 = load i32, i32* %193, align 4
  store i32 %194, i32* %4, align 4
  %195 = load i32, i32* %3, align 4
  store i32 %195, i32* %5, align 4
  br label %196

196:                                              ; preds = %189, %181
  br label %197

197:                                              ; preds = %196
  %198 = load i32, i32* %3, align 4
  %199 = add nsw i32 %198, 1
  store i32 %199, i32* %3, align 4
  br label %177

200:                                              ; preds = %177
  %201 = load i32, i32* %5, align 4
  %202 = sext i32 %201 to i64
  %203 = getelementptr inbounds [100 x %struct.stu], [100 x %struct.stu]* %1, i64 0, i64 %202
  %204 = getelementptr inbounds %struct.stu, %struct.stu* %203, i32 0, i32 0
  %205 = getelementptr inbounds [20 x i8], [20 x i8]* %204, i64 0, i64 0
  %206 = load i32, i32* %5, align 4
  %207 = sext i32 %206 to i64
  %208 = getelementptr inbounds [100 x %struct.stu], [100 x %struct.stu]* %1, i64 0, i64 %207
  %209 = getelementptr inbounds %struct.stu, %struct.stu* %208, i32 0, i32 6
  %210 = load i32, i32* %209, align 4
  %211 = load i32, i32* %6, align 4
  %212 = call i32 (i8*, ...) @printf(i8* getelementptr inbounds ([9 x i8], [9 x i8]* @.str.2, i64 0, i64 0), i8* %205, i32 %210, i32 %211)
  ret void
}

declare dso_local i32 @__isoc99_scanf(i8*, ...) #1

declare dso_local i32 @printf(i8*, ...) #1


!llvm.module.flags = !{!0}
!llvm.ident = !{!1}

!0 = !{i32 1, !"wchar_size", i32 4}
!1 = !{!"clang version 10.0.0-4ubuntu1 "}
